; Function Attrs: nounwind uwtable
define internal range(i32 0, 2) i32 @try_big_token(ptr noundef readonly captures(none) %0) #0 {
  %2 = load ptr, ptr %0, align 8, !tbaa !74
  %3 = tail call i32 @ossl_quic_tx_packetiser_set_initial_token(ptr noundef %2, ptr noundef nonnull @big_token, i64 noundef 1950, ptr noundef null, ptr noundef null) #8
  %4 = icmp ne i32 %3, 0
  %5 = zext i1 %4 to i32
  %6 = tail call i32 @test_false(ptr noundef nonnull @.str.2, i32 noundef 1230, ptr noundef nonnull @.str.167, i32 noundef %5) #8
  %.not = icmp eq i32 %6, 0
  br i1 %.not, label %.loopexit, label %.preheader

.preheader:                                       ; preds = %1
  %7 = tail call i32 @test_size_t_gt(ptr noundef nonnull @.str.2, i32 noundef 1238, ptr noundef nonnull @.str.168, ptr noundef nonnull @.str.5, i64 noundef 1949, i64 noundef 0) #8
  %.not68 = icmp eq i32 %7, 0
  br i1 %.not68, label %.loopexit, label %.lr.ph

8:                                                ; preds = %.lr.ph
  %9 = add i64 %.09, -1
  %10 = tail call i32 @test_size_t_gt(ptr noundef nonnull @.str.2, i32 noundef 1238, ptr noundef nonnull @.str.168, ptr noundef nonnull @.str.5, i64 noundef %9, i64 noundef 0) #8
  %.not6 = icmp eq i32 %10, 0
  br i1 %.not6, label %.loopexit, label %.lr.ph

.lr.ph:                                           ; preds = %.preheader, %8
  %.09 = phi i64 [ %9, %8 ], [ 1949, %.preheader ]
  %11 = load ptr, ptr %0, align 8, !tbaa !74
  %12 = tail call i32 @ossl_quic_tx_packetiser_set_initial_token(ptr noundef %11, ptr noundef nonnull @big_token, i64 noundef %.09, ptr noundef null, ptr noundef null) #8
  %.not7 = icmp eq i32 %12, 0
  br i1 %.not7, label %8, label %.loopexit

.loopexit:                                        ; preds = %8, %.lr.ph, %.preheader, %1
  %.05 = phi i32 [ 0, %1 ], [ 0, %.preheader ], [ 0, %8 ], [ 1, %.lr.ph ]
  ret i32 %.05
}